target datalayout = "e-m:e-p270:32:32-p271:32:32-p272:64:64-i64:64-i128:128-f80:128-n8:16:32:64-S128"
target triple = "x86_64-pc-linux-gnu"

%struct.timeval = type { i64, i64 }
%union.pthread_mutex_t = type { %struct.__pthread_mutex_s }
%struct.__pthread_mutex_s = type { i32, i32, i32, i32, i32, i16, i16, %struct.__pthread_internal_list }
%struct.__pthread_internal_list = type { ptr, ptr }
%union.pthread_cond_t = type { %struct.__pthread_cond_s }
%struct.__pthread_cond_s = type { %union.__atomic_wide_counter, %union.__atomic_wide_counter, [2 x i32], [2 x i32], i32, i32, [2 x i32] }
%union.__atomic_wide_counter = type { i64 }
%struct.settings = type { i64, i32, i32, i32, ptr, i32, i32, i32, ptr, ptr, i32, double, i32, i32, i32, i8, i32, i32, i8, i32, i32, i32, i32, i32, i32, i8, i8, i8, i8, i8, i8, i8, i32, i32, double, double, i32, i32, i8, i32, i8, i8, ptr, i32, i32, i32, i32, double, double, i32, i8, i32, i32, i32, i32, i32, i8, i8, i8, ptr, i32, i32, i32, i32, i32, i32, i32, i32, i32, i32, double, i8, i32, i32, ptr, i32 }
%struct.event = type { %struct.event_callback, %union.anon.1, i32, ptr, %union.anon.3, i16, i16, %struct.timeval }
%struct.event_callback = type { %struct.anon.0, i16, i8, i8, %union.anon, ptr }
%struct.anon.0 = type { ptr, ptr }
%union.anon = type { ptr }
%union.anon.1 = type { %struct.anon.2 }
%struct.anon.2 = type { ptr, ptr }
%union.anon.3 = type { %struct.anon.4 }
%struct.anon.4 = type { %struct.anon.5, %struct.timeval }
%struct.anon.5 = type { ptr, ptr }
%struct.conn = type { ptr, i32, i8, i8, i8, i8, i8, i8, i8, i8, ptr, i32, i32, i32, %struct.event, i16, i16, ptr, ptr, i32, i32, ptr, ptr, ptr, i32, ptr, i32, i32, i32, i32, i32, i32, i32, %struct.sockaddr_in6, i32, i8, %struct.anon.9, %union.protocol_binary_request_header, i64, i64, i16, i32, i32, ptr, ptr, ptr, ptr, ptr, ptr }
%struct.sockaddr_in6 = type { i16, i16, i32, %struct.in6_addr, i32 }
%struct.in6_addr = type { %union.anon.8 }
%union.anon.8 = type { [4 x i32] }
%struct.anon.9 = type { ptr, i64, i64 }
%union.protocol_binary_request_header = type { %struct.anon.10 }
%struct.anon.10 = type { i8, i8, i16, i8, i8, i16, i32, i32, i64 }
%struct.timespec = type { i64, i64 }

@current_time = dso_local global i32 0, align 4
@do_run_conn_timeout_thread = internal global i32 0, align 4
@conn_timeout_lock = internal global %union.pthread_mutex_t zeroinitializer, align 8
@conn_timeout_cond = internal global %union.pthread_cond_t zeroinitializer, align 8
@settings = dso_local global %struct.settings zeroinitializer, align 8
@stderr = external global ptr, align 8
@conns = dso_local global ptr null, align 8
@max_fds = internal global i32 0, align 4
@.str.482 = private unnamed_addr constant [47 x i8] c"idle timeout thread at top of connection list\0A\00", align 1
@.str.483 = private unnamed_addr constant [40 x i8] c"idle timeout thread sleeping for %ulus\0A\00", align 1
@.str.484 = private unnamed_addr constant [53 x i8] c"idle timeout thread finished pass, sleeping for %ds\0A\00", align 1

; Function Attrs: nounwind uwtable
define internal ptr @conn_timeout_thread(ptr noundef %0) #0 {
  %2 = alloca ptr, align 8
  %3 = alloca i32, align 4
  %4 = alloca ptr, align 8
  %5 = alloca i32, align 4
  %6 = alloca i32, align 4
  %7 = alloca i32, align 4
  %8 = alloca i32, align 4
  %9 = alloca %struct.timeval, align 8
  %10 = alloca %struct.timespec, align 8
  store ptr %0, ptr %2, align 8, !tbaa !68
  call void @llvm.lifetime.start.p0(i64 4, ptr %3) #15
  call void @llvm.lifetime.start.p0(i64 8, ptr %4) #15
  call void @llvm.lifetime.start.p0(i64 4, ptr %5) #15
  call void @llvm.lifetime.start.p0(i64 4, ptr %6) #15
  call void @llvm.lifetime.start.p0(i64 4, ptr %7) #15
  %11 = load i32, ptr @max_fds, align 4, !tbaa !8
  %12 = sdiv i32 %11, 100
  store i32 %12, ptr %7, align 4, !tbaa !8
  %13 = load i32, ptr %7, align 4, !tbaa !8
  %14 = icmp eq i32 %13, 0
  br i1 %14, label %15, label %16

15:                                               ; preds = %1
  store i32 100, ptr %7, align 4, !tbaa !8
  br label %16

16:                                               ; preds = %15, %1
  call void @llvm.lifetime.start.p0(i64 4, ptr %8) #15
  %17 = load i32, ptr %7, align 4, !tbaa !8
  %18 = sdiv i32 1000000, %17
  store i32 %18, ptr %8, align 4, !tbaa !8
  %19 = call i32 @pthread_mutex_lock(ptr noundef @conn_timeout_lock) #15
  br label %20

20:                                               ; preds = %121, %16
  %21 = load i32, ptr @do_run_conn_timeout_thread, align 4, !tbaa !8
  %22 = icmp ne i32 %21, 0
  br i1 %22, label %23, label %131

23:                                               ; preds = %20
  %24 = load i32, ptr getelementptr inbounds nuw (%struct.settings, ptr @settings, i32 0, i32 5), align 8, !tbaa !51
  %25 = icmp sgt i32 %24, 2
  br i1 %25, label %26, label %29

26:                                               ; preds = %23
  %27 = load ptr, ptr @stderr, align 8, !tbaa !52
  %28 = call i32 (ptr, ptr, ...) @fprintf(ptr noundef %27, ptr noundef @.str.482) #15
  br label %29

29:                                               ; preds = %26, %23
  %30 = load volatile i32, ptr @current_time, align 4, !tbaa !8
  store i32 %30, ptr %5, align 4, !tbaa !8
  store i32 0, ptr %3, align 4, !tbaa !8
  br label %31

31:                                               ; preds = %101, %29
  %32 = load i32, ptr %3, align 4, !tbaa !8
  %33 = load i32, ptr @max_fds, align 4, !tbaa !8
  %34 = icmp slt i32 %32, %33
  br i1 %34, label %35, label %104

35:                                               ; preds = %31
  %36 = load i32, ptr %3, align 4, !tbaa !8
  %37 = srem i32 %36, 100
  %38 = icmp eq i32 %37, 0
  br i1 %38, label %39, label %49

39:                                               ; preds = %35
  %40 = load i32, ptr getelementptr inbounds nuw (%struct.settings, ptr @settings, i32 0, i32 5), align 8, !tbaa !51
  %41 = icmp sgt i32 %40, 2
  br i1 %41, label %42, label %46

42:                                               ; preds = %39
  %43 = load ptr, ptr @stderr, align 8, !tbaa !52
  %44 = load i32, ptr %8, align 4, !tbaa !8
  %45 = call i32 (ptr, ptr, ...) @fprintf(ptr noundef %43, ptr noundef @.str.483, i32 noundef %44) #15
  br label %46

46:                                               ; preds = %42, %39
  %47 = load i32, ptr %8, align 4, !tbaa !8
  %48 = call i32 @usleep(i32 noundef %47)
  br label %49

49:                                               ; preds = %46, %35
  %50 = load ptr, ptr @conns, align 8, !tbaa !107
  %51 = load i32, ptr %3, align 4, !tbaa !8
  %52 = sext i32 %51 to i64
  %53 = getelementptr inbounds ptr, ptr %50, i64 %52
  %54 = load ptr, ptr %53, align 8, !tbaa !10
  %55 = icmp ne ptr %54, null
  br i1 %55, label %57, label %56

56:                                               ; preds = %49
  br label %101

57:                                               ; preds = %49
  %58 = load ptr, ptr @conns, align 8, !tbaa !107
  %59 = load i32, ptr %3, align 4, !tbaa !8
  %60 = sext i32 %59 to i64
  %61 = getelementptr inbounds ptr, ptr %58, i64 %60
  %62 = load ptr, ptr %61, align 8, !tbaa !10
  store ptr %62, ptr %4, align 8, !tbaa !10
  %63 = load ptr, ptr %4, align 8, !tbaa !10
  %64 = getelementptr inbounds nuw %struct.conn, ptr %63, i32 0, i32 30
  %65 = load i32, ptr %64, align 8, !tbaa !69
  %66 = icmp eq i32 %65, 1
  br i1 %66, label %68, label %67

67:                                               ; preds = %57
  br label %101

68:                                               ; preds = %57
  %69 = load ptr, ptr %4, align 8, !tbaa !10
  %70 = getelementptr inbounds nuw %struct.conn, ptr %69, i32 0, i32 11
  %71 = load i32, ptr %70, align 8, !tbaa !50
  %72 = icmp ne i32 %71, 1
  br i1 %72, label %73, label %79

73:                                               ; preds = %68
  %74 = load ptr, ptr %4, align 8, !tbaa !10
  %75 = getelementptr inbounds nuw %struct.conn, ptr %74, i32 0, i32 11
  %76 = load i32, ptr %75, align 8, !tbaa !50
  %77 = icmp ne i32 %76, 3
  br i1 %77, label %78, label %79

78:                                               ; preds = %73
  br label %101

79:                                               ; preds = %73, %68
  %80 = load volatile i32, ptr @current_time, align 4, !tbaa !8
  %81 = load ptr, ptr %4, align 8, !tbaa !10
  %82 = getelementptr inbounds nuw %struct.conn, ptr %81, i32 0, i32 13
  %83 = load i32, ptr %82, align 8, !tbaa !49
  %84 = sub i32 %80, %83
  %85 = load i32, ptr getelementptr inbounds nuw (%struct.settings, ptr @settings, i32 0, i32 52), align 4, !tbaa !45
  %86 = icmp ugt i32 %84, %85
  br i1 %86, label %87, label %89

87:                                               ; preds = %79
  %88 = load ptr, ptr %4, align 8, !tbaa !10
  call void @timeout_conn(ptr noundef %88)
  br label %100

89:                                               ; preds = %79
  %90 = load ptr, ptr %4, align 8, !tbaa !10
  %91 = getelementptr inbounds nuw %struct.conn, ptr %90, i32 0, i32 13
  %92 = load i32, ptr %91, align 8, !tbaa !49
  %93 = load i32, ptr %5, align 4, !tbaa !8
  %94 = icmp ult i32 %92, %93
  br i1 %94, label %95, label %99

95:                                               ; preds = %89
  %96 = load ptr, ptr %4, align 8, !tbaa !10
  %97 = getelementptr inbounds nuw %struct.conn, ptr %96, i32 0, i32 13
  %98 = load i32, ptr %97, align 8, !tbaa !49
  store i32 %98, ptr %5, align 4, !tbaa !8
  br label %99

99:                                               ; preds = %95, %89
  br label %100

100:                                              ; preds = %99, %87
  br label %101

101:                                              ; preds = %100, %78, %67, %56
  %102 = load i32, ptr %3, align 4, !tbaa !8
  %103 = add nsw i32 %102, 1
  store i32 %103, ptr %3, align 4, !tbaa !8
  br label %31, !llvm.loop !420

104:                                              ; preds = %31
  %105 = load i32, ptr getelementptr inbounds nuw (%struct.settings, ptr @settings, i32 0, i32 52), align 4, !tbaa !45
  %106 = load volatile i32, ptr @current_time, align 4, !tbaa !8
  %107 = load i32, ptr %5, align 4, !tbaa !8
  %108 = sub i32 %106, %107
  %109 = sub i32 %105, %108
  %110 = add i32 %109, 1
  store i32 %110, ptr %6, align 4, !tbaa !8
  %111 = load i32, ptr %6, align 4, !tbaa !8
  %112 = icmp sle i32 %111, 0
  br i1 %112, label %113, label %114

113:                                              ; preds = %104
  store i32 1, ptr %6, align 4, !tbaa !8
  br label %114

114:                                              ; preds = %113, %104
  %115 = load i32, ptr getelementptr inbounds nuw (%struct.settings, ptr @settings, i32 0, i32 5), align 8, !tbaa !51
  %116 = icmp sgt i32 %115, 2
  br i1 %116, label %117, label %121

117:                                              ; preds = %114
  %118 = load ptr, ptr @stderr, align 8, !tbaa !52
  %119 = load i32, ptr %6, align 4, !tbaa !8
  %120 = call i32 (ptr, ptr, ...) @fprintf(ptr noundef %118, ptr noundef @.str.484, i32 noundef %119) #15
  br label %121

121:                                              ; preds = %117, %114
  call void @llvm.lifetime.start.p0(i64 16, ptr %9) #15
  call void @llvm.lifetime.start.p0(i64 16, ptr %10) #15
  %122 = call i32 @gettimeofday(ptr noundef %9, ptr noundef null) #15
  %123 = getelementptr inbounds nuw %struct.timeval, ptr %9, i32 0, i32 0
  %124 = load i64, ptr %123, align 8, !tbaa !336
  %125 = load i32, ptr %6, align 4, !tbaa !8
  %126 = sext i32 %125 to i64
  %127 = add nsw i64 %124, %126
  %128 = getelementptr inbounds nuw %struct.timespec, ptr %10, i32 0, i32 0
  store i64 %127, ptr %128, align 8, !tbaa !371
  %129 = getelementptr inbounds nuw %struct.timespec, ptr %10, i32 0, i32 1
  store i64 0, ptr %129, align 8, !tbaa !421
  %130 = call i32 @pthread_cond_timedwait(ptr noundef @conn_timeout_cond, ptr noundef @conn_timeout_lock, ptr noundef %10)
  call void @llvm.lifetime.end.p0(i64 16, ptr %10) #15
  call void @llvm.lifetime.end.p0(i64 16, ptr %9) #15
  br label %20, !llvm.loop !422

131:                                              ; preds = %20
  %132 = call i32 @pthread_mutex_unlock(ptr noundef @conn_timeout_lock) #15
  call void @llvm.lifetime.end.p0(i64 4, ptr %8) #15
  call void @llvm.lifetime.end.p0(i64 4, ptr %7) #15
  call void @llvm.lifetime.end.p0(i64 4, ptr %6) #15
  call void @llvm.lifetime.end.p0(i64 4, ptr %5) #15
  call void @llvm.lifetime.end.p0(i64 8, ptr %4) #15
  call void @llvm.lifetime.end.p0(i64 4, ptr %3) #15
  ret ptr null
}