; Function Attrs: nounwind uwtable
define internal noalias noundef ptr @conn_timeout_thread(ptr readnone captures(none) %0) #1 {
  %2 = alloca %struct.timeval, align 8
  %3 = alloca %struct.timespec, align 8
  %4 = load i32, ptr @max_fds, align 4, !tbaa !8
  %5 = sdiv i32 %4, 100
  %.off = add i32 %4, 99
  %6 = icmp ult i32 %.off, 199
  %spec.store.select = select i1 %6, i32 100, i32 %5
  %7 = sdiv i32 1000000, %spec.store.select
  %8 = tail call i32 @pthread_mutex_lock(ptr noundef nonnull @conn_timeout_lock) #34
  %.b30 = load i1, ptr @do_run_conn_timeout_thread, align 4
  br i1 %.b30, label %.lr.ph32, label %._crit_edge33

.lr.ph32:                                         ; preds = %1
  %9 = getelementptr inbounds nuw i8, ptr %3, i64 8
  br label %10

10:                                               ; preds = %.lr.ph32, %64
  %11 = load i32, ptr getelementptr inbounds nuw (i8, ptr @settings, i64 32), align 8, !tbaa !49
  %12 = icmp sgt i32 %11, 2
  br i1 %12, label %13, label %16

13:                                               ; preds = %10
  %14 = load ptr, ptr @stderr, align 8, !tbaa !50
  %15 = call i64 @fwrite(ptr nonnull @.str.482, i64 46, i64 1, ptr %14) #38
  br label %16

16:                                               ; preds = %13, %10
  %17 = load volatile i32, ptr @current_time, align 4, !tbaa !8
  %18 = load i32, ptr @max_fds, align 4, !tbaa !8
  %19 = icmp sgt i32 %18, 0
  br i1 %19, label %.lr.ph, label %._crit_edge

.lr.ph:                                           ; preds = %16, %51
  %indvars.iv = phi i64 [ %indvars.iv.next, %51 ], [ 0, %16 ]
  %.02128 = phi i32 [ %.1, %51 ], [ %17, %16 ]
  %20 = trunc nuw nsw i64 %indvars.iv to i32
  %21 = urem i32 %20, 100
  %22 = icmp eq i32 %21, 0
  br i1 %22, label %23, label %31

23:                                               ; preds = %.lr.ph
  %24 = load i32, ptr getelementptr inbounds nuw (i8, ptr @settings, i64 32), align 8, !tbaa !49
  %25 = icmp sgt i32 %24, 2
  br i1 %25, label %26, label %29

26:                                               ; preds = %23
  %27 = load ptr, ptr @stderr, align 8, !tbaa !50
  %28 = call i32 (ptr, ptr, ...) @fprintf(ptr noundef %27, ptr noundef nonnull @.str.483, i32 noundef %7) #36
  br label %29

29:                                               ; preds = %26, %23
  %30 = call i32 @usleep(i32 noundef %7) #34
  br label %31

31:                                               ; preds = %29, %.lr.ph
  %32 = load ptr, ptr @conns, align 8, !tbaa !137
  %33 = getelementptr inbounds nuw ptr, ptr %32, i64 %indvars.iv
  %34 = load ptr, ptr %33, align 8, !tbaa !139
  %.not = icmp eq ptr %34, null
  br i1 %.not, label %51, label %35

35:                                               ; preds = %31
  %36 = getelementptr inbounds nuw i8, ptr %34, i64 264
  %37 = load i32, ptr %36, align 8, !tbaa !65
  %38 = icmp eq i32 %37, 1
  br i1 %38, label %39, label %51

39:                                               ; preds = %35
  %40 = getelementptr inbounds nuw i8, ptr %34, i64 32
  %41 = load i32, ptr %40, align 8, !tbaa !48
  switch i32 %41, label %51 [
    i32 1, label %42
    i32 3, label %42
  ]

42:                                               ; preds = %39, %39
  %43 = load volatile i32, ptr @current_time, align 4, !tbaa !8
  %44 = getelementptr inbounds nuw i8, ptr %34, i64 40
  %45 = load i32, ptr %44, align 8, !tbaa !47
  %46 = sub i32 %43, %45
  %47 = load i32, ptr getelementptr inbounds nuw (i8, ptr @settings, i64 244), align 4, !tbaa !43
  %48 = icmp ugt i32 %46, %47
  br i1 %48, label %49, label %50

49:                                               ; preds = %42
  call void @timeout_conn(ptr noundef nonnull %34) #34
  br label %51

50:                                               ; preds = %42
  %spec.select = call i32 @llvm.umin.i32(i32 %45, i32 %.02128)
  br label %51

51:                                               ; preds = %50, %39, %49, %35, %31
  %.1 = phi i32 [ %.02128, %49 ], [ %.02128, %35 ], [ %.02128, %31 ], [ %.02128, %39 ], [ %spec.select, %50 ]
  %indvars.iv.next = add nuw nsw i64 %indvars.iv, 1
  %52 = load i32, ptr @max_fds, align 4, !tbaa !8
  %53 = sext i32 %52 to i64
  %54 = icmp slt i64 %indvars.iv.next, %53
  br i1 %54, label %.lr.ph, label %._crit_edge, !llvm.loop !381

._crit_edge:                                      ; preds = %51, %16
  %.021.lcssa = phi i32 [ %17, %16 ], [ %.1, %51 ]
  %55 = load i32, ptr getelementptr inbounds nuw (i8, ptr @settings, i64 244), align 4, !tbaa !43
  %56 = load volatile i32, ptr @current_time, align 4, !tbaa !8
  %.neg = add i32 %.021.lcssa, 1
  %57 = add i32 %.neg, %55
  %58 = sub i32 %57, %56
  %spec.store.select1 = call i32 @llvm.smax.i32(i32 %58, i32 1)
  %59 = load i32, ptr getelementptr inbounds nuw (i8, ptr @settings, i64 32), align 8, !tbaa !49
  %60 = icmp sgt i32 %59, 2
  br i1 %60, label %61, label %64

61:                                               ; preds = %._crit_edge
  %62 = load ptr, ptr @stderr, align 8, !tbaa !50
  %63 = call i32 (ptr, ptr, ...) @fprintf(ptr noundef %62, ptr noundef nonnull @.str.484, i32 noundef %spec.store.select1) #36
  br label %64

64:                                               ; preds = %61, %._crit_edge
  call void @llvm.lifetime.start.p0(i64 16, ptr nonnull %2) #34
  call void @llvm.lifetime.start.p0(i64 16, ptr nonnull %3) #34
  %65 = call i32 @gettimeofday(ptr noundef nonnull %2, ptr noundef null) #34
  %66 = load i64, ptr %2, align 8, !tbaa !321
  %67 = zext nneg i32 %spec.store.select1 to i64
  %68 = add nsw i64 %66, %67
  store i64 %68, ptr %3, align 8, !tbaa !353
  store i64 0, ptr %9, align 8, !tbaa !382
  %69 = call i32 @pthread_cond_timedwait(ptr noundef nonnull @conn_timeout_cond, ptr noundef nonnull @conn_timeout_lock, ptr noundef nonnull %3) #34
  call void @llvm.lifetime.end.p0(i64 16, ptr nonnull %3) #34
  call void @llvm.lifetime.end.p0(i64 16, ptr nonnull %2) #34
  %.b = load i1, ptr @do_run_conn_timeout_thread, align 4
  br i1 %.b, label %10, label %._crit_edge33, !llvm.loop !383

._crit_edge33:                                    ; preds = %64, %1
  %70 = call i32 @pthread_mutex_unlock(ptr noundef nonnull @conn_timeout_lock) #34
  ret ptr null
}